; Function Attrs: nounwind uwtable
define ptr @Cnf_DeriveOtherWithMan(ptr noundef initializes((0, 8), (88, 96)) %0, ptr noundef %1, i32 noundef %2) local_unnamed_addr #0 {
  %4 = alloca %struct.timespec, align 8
  %5 = alloca %struct.timespec, align 8
  %6 = alloca %struct.timespec, align 8
  %7 = alloca %struct.timespec, align 8
  %8 = alloca %struct.timespec, align 8
  %9 = alloca %struct.timespec, align 8
  store ptr %1, ptr %0, align 8, !tbaa !8
  call void @llvm.lifetime.start.p0(i64 16, ptr nonnull %9) #6
  %10 = call i32 @clock_gettime(i32 noundef 1, ptr noundef nonnull %9) #6
  %11 = icmp slt i32 %10, 0
  br i1 %11, label %Abc_Clock.exit, label %12

12:                                               ; preds = %3
  %13 = load i64, ptr %9, align 8, !tbaa !17
  %.neg31 = mul i64 %13, -1000000
  %14 = getelementptr inbounds nuw i8, ptr %9, i64 8
  %15 = load i64, ptr %14, align 8, !tbaa !19
  %.neg = sdiv i64 %15, -1000
  %.neg32 = add i64 %.neg, %.neg31
  br label %Abc_Clock.exit

Abc_Clock.exit:                                   ; preds = %3, %12
  %.0.i.neg = phi i64 [ %.neg32, %12 ], [ 1, %3 ]
  call void @llvm.lifetime.end.p0(i64 16, ptr nonnull %9) #6
  %16 = call ptr @Dar_ManComputeCuts(ptr noundef %1, i32 noundef 10, i32 noundef %2, i32 noundef 0) #6
  call void @llvm.lifetime.start.p0(i64 16, ptr nonnull %8) #6
  %17 = call i32 @clock_gettime(i32 noundef 1, ptr noundef nonnull %8) #6
  %18 = icmp slt i32 %17, 0
  br i1 %18, label %Abc_Clock.exit22, label %19

19:                                               ; preds = %Abc_Clock.exit
  %20 = load i64, ptr %8, align 8, !tbaa !17
  %21 = mul nsw i64 %20, 1000000
  %22 = getelementptr inbounds nuw i8, ptr %8, i64 8
  %23 = load i64, ptr %22, align 8, !tbaa !19
  %24 = sdiv i64 %23, 1000
  %25 = add nsw i64 %24, %21
  br label %Abc_Clock.exit22

Abc_Clock.exit22:                                 ; preds = %Abc_Clock.exit, %19
  %.0.i21 = phi i64 [ %25, %19 ], [ -1, %Abc_Clock.exit ]
  call void @llvm.lifetime.end.p0(i64 16, ptr nonnull %8) #6
  %26 = add i64 %.0.i21, %.0.i.neg
  %27 = getelementptr inbounds nuw i8, ptr %0, i64 88
  store i64 %26, ptr %27, align 8, !tbaa !20
  call void @llvm.lifetime.start.p0(i64 16, ptr nonnull %7) #6
  %28 = call i32 @clock_gettime(i32 noundef 1, ptr noundef nonnull %7) #6
  %29 = icmp slt i32 %28, 0
  br i1 %29, label %Abc_Clock.exit24, label %30

30:                                               ; preds = %Abc_Clock.exit22
  %31 = load i64, ptr %7, align 8, !tbaa !17
  %.neg34 = mul i64 %31, -1000000
  %32 = getelementptr inbounds nuw i8, ptr %7, i64 8
  %33 = load i64, ptr %32, align 8, !tbaa !19
  %.neg33 = sdiv i64 %33, -1000
  %.neg35 = add i64 %.neg33, %.neg34
  br label %Abc_Clock.exit24

Abc_Clock.exit24:                                 ; preds = %Abc_Clock.exit22, %30
  %.0.i23.neg = phi i64 [ %.neg35, %30 ], [ 1, %Abc_Clock.exit22 ]
  call void @llvm.lifetime.end.p0(i64 16, ptr nonnull %7) #6
  call void @Cnf_DeriveMapping(ptr noundef nonnull %0) #6
  call void @llvm.lifetime.start.p0(i64 16, ptr nonnull %6) #6
  %34 = call i32 @clock_gettime(i32 noundef 1, ptr noundef nonnull %6) #6
  %35 = icmp slt i32 %34, 0
  br i1 %35, label %Abc_Clock.exit26, label %36

36:                                               ; preds = %Abc_Clock.exit24
  %37 = load i64, ptr %6, align 8, !tbaa !17
  %38 = mul nsw i64 %37, 1000000
  %39 = getelementptr inbounds nuw i8, ptr %6, i64 8
  %40 = load i64, ptr %39, align 8, !tbaa !19
  %41 = sdiv i64 %40, 1000
  %42 = add nsw i64 %41, %38
  br label %Abc_Clock.exit26

Abc_Clock.exit26:                                 ; preds = %Abc_Clock.exit24, %36
  %.0.i25 = phi i64 [ %42, %36 ], [ -1, %Abc_Clock.exit24 ]
  call void @llvm.lifetime.end.p0(i64 16, ptr nonnull %6) #6
  %43 = add i64 %.0.i25, %.0.i23.neg
  %44 = getelementptr inbounds nuw i8, ptr %0, i64 96
  store i64 %43, ptr %44, align 8, !tbaa !21
  call void @llvm.lifetime.start.p0(i64 16, ptr nonnull %5) #6
  %45 = call i32 @clock_gettime(i32 noundef 1, ptr noundef nonnull %5) #6
  %46 = icmp slt i32 %45, 0
  br i1 %46, label %Abc_Clock.exit28, label %47

47:                                               ; preds = %Abc_Clock.exit26
  %48 = load i64, ptr %5, align 8, !tbaa !17
  %.neg37 = mul i64 %48, -1000000
  %49 = getelementptr inbounds nuw i8, ptr %5, i64 8
  %50 = load i64, ptr %49, align 8, !tbaa !19
  %.neg36 = sdiv i64 %50, -1000
  %.neg38 = add i64 %.neg36, %.neg37
  br label %Abc_Clock.exit28

Abc_Clock.exit28:                                 ; preds = %Abc_Clock.exit26, %47
  %.0.i27.neg = phi i64 [ %.neg38, %47 ], [ 1, %Abc_Clock.exit26 ]
  call void @llvm.lifetime.end.p0(i64 16, ptr nonnull %5) #6
  call void @Cnf_ManTransferCuts(ptr noundef nonnull %0) #6
  %51 = call ptr @Cnf_ManScanMapping(ptr noundef nonnull %0, i32 noundef 1, i32 noundef 1) #6
  %52 = call ptr @Cnf_ManWriteCnfOther(ptr noundef nonnull %0, ptr noundef %51) #6
  %53 = call ptr @Cnf_ManWriteCnfMapping(ptr noundef nonnull %0, ptr noundef %51) #6
  %54 = getelementptr inbounds nuw i8, ptr %52, i64 64
  store ptr %53, ptr %54, align 8, !tbaa !25
  %55 = getelementptr inbounds nuw i8, ptr %51, i64 8
  %56 = load ptr, ptr %55, align 8, !tbaa !22
  %.not.i = icmp eq ptr %56, null
  br i1 %.not.i, label %Vec_PtrFree.exit, label %57

57:                                               ; preds = %Abc_Clock.exit28
  call void @free(ptr noundef nonnull %56) #6
  br label %Vec_PtrFree.exit

Vec_PtrFree.exit:                                 ; preds = %Abc_Clock.exit28, %57
  call void @free(ptr noundef nonnull %51) #6
  call void @Aig_MmFixedStop(ptr noundef %16, i32 noundef 0) #6
  call void @llvm.lifetime.start.p0(i64 16, ptr nonnull %4) #6
  %58 = call i32 @clock_gettime(i32 noundef 1, ptr noundef nonnull %4) #6
  %59 = icmp slt i32 %58, 0
  br i1 %59, label %Abc_Clock.exit30, label %60

60:                                               ; preds = %Vec_PtrFree.exit
  %61 = load i64, ptr %4, align 8, !tbaa !17
  %62 = mul nsw i64 %61, 1000000
  %63 = getelementptr inbounds nuw i8, ptr %4, i64 8
  %64 = load i64, ptr %63, align 8, !tbaa !19
  %65 = sdiv i64 %64, 1000
  %66 = add nsw i64 %65, %62
  br label %Abc_Clock.exit30

Abc_Clock.exit30:                                 ; preds = %Vec_PtrFree.exit, %60
  %.0.i29 = phi i64 [ %66, %60 ], [ -1, %Vec_PtrFree.exit ]
  call void @llvm.lifetime.end.p0(i64 16, ptr nonnull %4) #6
  %67 = add i64 %.0.i29, %.0.i27.neg
  %68 = getelementptr inbounds nuw i8, ptr %0, i64 104
  store i64 %67, ptr %68, align 8, !tbaa !24
  call void @Aig_ManResetRefs(ptr noundef %1) #6
  ret ptr %52
}